; Function Attrs: mustprogress uwtable
define dso_local noundef range(i32 -1, 2) i32 @_ZN17RealDiskInterface10RemoveFileERKNSt7__cxx1112basic_stringIcSt11char_traitsIcESaIcEEE(ptr nonnull readnone align 8 captures(none) %0, ptr noundef nonnull readonly align 8 captures(none) dereferenceable(32) %1) unnamed_addr #0 align 2 {
  %3 = load ptr, ptr %1, align 8, !tbaa !24
  %4 = tail call i32 @remove(ptr noundef %3) #17
  %5 = icmp slt i32 %4, 0
  br i1 %5, label %6, label %12

6:                                                ; preds = %2
  %7 = tail call ptr @__errno_location() #19
  %8 = load i32, ptr %7, align 4, !tbaa !32
  %cond = icmp eq i32 %8, 2
  br i1 %cond, label %12, label %9

9:                                                ; preds = %6
  %10 = load ptr, ptr %1, align 8, !tbaa !24
  %11 = tail call ptr @strerror(i32 noundef %8) #17
  tail call void (ptr, ...) @_Z5ErrorPKcz(ptr noundef nonnull @.str.9, ptr noundef %10, ptr noundef %11)
  br label %12

12:                                               ; preds = %2, %6, %9
  %.0 = phi i32 [ -1, %9 ], [ 1, %6 ], [ 0, %2 ]
  ret i32 %.0
}